(i__main__
LogFile
p0
(dp1
S'_installed_files'
p2
(dp3
S'../../../../../ExternalLib/SLC6/ExternalLib/gaudi/GAUDI_v23r9/GaudiSvc/x86_64-slc6-gcc46-opt/libGaudiSvc.so'
p4
S'../../../InstallArea/x86_64-slc6-gcc46-opt/lib/libGaudiSvc.so'
p5
sS'../../../../../ExternalLib/SLC6/ExternalLib/gaudi/GAUDI_v23r9/GaudiCoreSvc/x86_64-slc6-gcc46-opt/libGaudiCoreSvc.so'
p6
S'../../../InstallArea/x86_64-slc6-gcc46-opt/lib/libGaudiCoreSvc.so'
p7
sS'../../../../../../cvmfs/bes3.ihep.ac.cn/bes3sw/ExternalLib/SLC6/ExternalLib/gaudi/GAUDI_v23r9/GaudiSvc/x86_64-slc6-gcc46-opt/libGaudiSvc.so'
p8
S'../x86_64-slc6-gcc46-opt/libGaudiSvc.so'
p9
sS'../../../../../../cvmfs/bes3.ihep.ac.cn/bes3sw/ExternalLib/SLC6/ExternalLib/gaudi/GAUDI_v23r9/GaudiCoreSvc/x86_64-slc6-gcc46-opt/libGaudiCoreSvc.so'
p10
S'../x86_64-slc6-gcc46-opt/libGaudiCoreSvc.so'
p11
sS'../../../Generator/KKMC/KKMC-00-00-62/x86_64-slc6-gcc46-opt/libkkmc.so'
p12
S'../../../InstallArea/x86_64-slc6-gcc46-opt/lib/libkkmc.so'
p13
sS'../../../../../../cvmfs/bes3.ihep.ac.cn/bes3sw/Boss/7.0.8/Generator/KKMC/KKMC-00-00-62/x86_64-slc6-gcc46-opt/libkkmc.so'
p14
S'../x86_64-slc6-gcc46-opt/libkkmc.so'
p15
sS'../../../../../../cvmfs/bes3.ihep.ac.cn/bes3sw/Boss/7.0.8/Generator/Bhwide/Bhwide-00-00-11/x86_64-slc6-gcc46-opt/libbhwide.so'
p16
S'../x86_64-slc6-gcc46-opt/libbhwide.so'
p17
sS'../../../Generator/Bhwide/Bhwide-00-00-11/x86_64-slc6-gcc46-opt/libbhwide.so'
p18
S'../../../InstallArea/x86_64-slc6-gcc46-opt/lib/libbhwide.so'
p19
ssb.